; Function Attrs: nounwind uwtable
define range(i32 -5, 1) i32 @CVBandPrecGetWorkSpace(ptr noundef %0, ptr noundef captures(none) %1, ptr noundef captures(none) %2) local_unnamed_addr #0 {
  %4 = alloca i64, align 8
  %5 = alloca i64, align 8
  %6 = alloca i64, align 8
  %7 = alloca i64, align 8
  call void @llvm.lifetime.start.p0(i64 8, ptr nonnull %4) #8
  call void @llvm.lifetime.start.p0(i64 8, ptr nonnull %5) #8
  call void @llvm.lifetime.start.p0(i64 8, ptr nonnull %6) #8
  call void @llvm.lifetime.start.p0(i64 8, ptr nonnull %7) #8
  %8 = icmp eq ptr %0, null
  br i1 %8, label %9, label %10

9:                                                ; preds = %3
  tail call void (ptr, i32, i32, ptr, ptr, ptr, ...) @cvProcessError(ptr noundef null, i32 noundef -1, i32 noundef 222, ptr noundef nonnull @__func__.CVBandPrecGetWorkSpace, ptr noundef nonnull @.str, ptr noundef nonnull @.str.1) #8
  br label %84

10:                                               ; preds = %3
  %11 = getelementptr inbounds nuw i8, ptr %0, i64 1040
  %12 = load ptr, ptr %11, align 8, !tbaa !3
  %13 = icmp eq ptr %12, null
  br i1 %13, label %14, label %15

14:                                               ; preds = %10
  tail call void (ptr, i32, i32, ptr, ptr, ptr, ...) @cvProcessError(ptr noundef nonnull %0, i32 noundef -2, i32 noundef 230, ptr noundef nonnull @__func__.CVBandPrecGetWorkSpace, ptr noundef nonnull @.str, ptr noundef nonnull @.str.2) #8
  br label %84

15:                                               ; preds = %10
  %16 = getelementptr inbounds nuw i8, ptr %12, i64 240
  %17 = load ptr, ptr %16, align 8, !tbaa !39
  %18 = icmp eq ptr %17, null
  br i1 %18, label %19, label %20

19:                                               ; preds = %15
  tail call void (ptr, i32, i32, ptr, ptr, ptr, ...) @cvProcessError(ptr noundef nonnull %0, i32 noundef -5, i32 noundef 238, ptr noundef nonnull @__func__.CVBandPrecGetWorkSpace, ptr noundef nonnull @.str, ptr noundef nonnull @.str.6) #8
  br label %84

20:                                               ; preds = %15
  store i64 4, ptr %2, align 8, !tbaa !49
  store i64 0, ptr %1, align 8, !tbaa !49
  %21 = getelementptr inbounds nuw i8, ptr %0, i64 224
  %22 = load ptr, ptr %21, align 8, !tbaa !17
  %23 = getelementptr inbounds nuw i8, ptr %22, i64 8
  %24 = load ptr, ptr %23, align 8, !tbaa !18
  %25 = getelementptr inbounds nuw i8, ptr %24, i64 32
  %26 = load ptr, ptr %25, align 8, !tbaa !50
  %.not = icmp eq ptr %26, null
  br i1 %.not, label %36, label %27

27:                                               ; preds = %20
  call void @N_VSpace(ptr noundef nonnull %22, ptr noundef nonnull %4, ptr noundef nonnull %5) #8
  %28 = load i64, ptr %5, align 8, !tbaa !49
  %29 = shl nsw i64 %28, 1
  %30 = load i64, ptr %2, align 8, !tbaa !49
  %31 = add nsw i64 %30, %29
  store i64 %31, ptr %2, align 8, !tbaa !49
  %32 = load i64, ptr %4, align 8, !tbaa !49
  %33 = shl nsw i64 %32, 1
  %34 = load i64, ptr %1, align 8, !tbaa !49
  %35 = add nsw i64 %34, %33
  store i64 %35, ptr %1, align 8, !tbaa !49
  br label %36

36:                                               ; preds = %27, %20
  %37 = getelementptr inbounds nuw i8, ptr %17, i64 24
  %38 = load ptr, ptr %37, align 8, !tbaa !32
  %39 = getelementptr inbounds nuw i8, ptr %38, i64 8
  %40 = load ptr, ptr %39, align 8, !tbaa !51
  %41 = getelementptr inbounds nuw i8, ptr %40, i64 72
  %42 = load ptr, ptr %41, align 8, !tbaa !54
  %.not32 = icmp eq ptr %42, null
  br i1 %.not32, label %52, label %43

43:                                               ; preds = %36
  %44 = call i32 @SUNMatSpace(ptr noundef nonnull %38, ptr noundef nonnull %6, ptr noundef nonnull %7) #8
  %.not33 = icmp eq i32 %44, 0
  br i1 %.not33, label %45, label %84

45:                                               ; preds = %43
  %46 = load i64, ptr %7, align 8, !tbaa !49
  %47 = load i64, ptr %2, align 8, !tbaa !49
  %48 = add nsw i64 %47, %46
  store i64 %48, ptr %2, align 8, !tbaa !49
  %49 = load i64, ptr %6, align 8, !tbaa !49
  %50 = load i64, ptr %1, align 8, !tbaa !49
  %51 = add nsw i64 %50, %49
  store i64 %51, ptr %1, align 8, !tbaa !49
  br label %52

52:                                               ; preds = %45, %36
  %53 = getelementptr inbounds nuw i8, ptr %17, i64 32
  %54 = load ptr, ptr %53, align 8, !tbaa !33
  %55 = getelementptr inbounds nuw i8, ptr %54, i64 8
  %56 = load ptr, ptr %55, align 8, !tbaa !51
  %57 = getelementptr inbounds nuw i8, ptr %56, i64 72
  %58 = load ptr, ptr %57, align 8, !tbaa !54
  %.not34 = icmp eq ptr %58, null
  br i1 %.not34, label %68, label %59

59:                                               ; preds = %52
  %60 = call i32 @SUNMatSpace(ptr noundef nonnull %54, ptr noundef nonnull %6, ptr noundef nonnull %7) #8
  %.not35 = icmp eq i32 %60, 0
  br i1 %.not35, label %61, label %84

61:                                               ; preds = %59
  %62 = load i64, ptr %7, align 8, !tbaa !49
  %63 = load i64, ptr %2, align 8, !tbaa !49
  %64 = add nsw i64 %63, %62
  store i64 %64, ptr %2, align 8, !tbaa !49
  %65 = load i64, ptr %6, align 8, !tbaa !49
  %66 = load i64, ptr %1, align 8, !tbaa !49
  %67 = add nsw i64 %66, %65
  store i64 %67, ptr %1, align 8, !tbaa !49
  br label %68

68:                                               ; preds = %61, %52
  %69 = getelementptr inbounds nuw i8, ptr %17, i64 40
  %70 = load ptr, ptr %69, align 8, !tbaa !34
  %71 = getelementptr inbounds nuw i8, ptr %70, i64 8
  %72 = load ptr, ptr %71, align 8, !tbaa !56
  %73 = getelementptr inbounds nuw i8, ptr %72, i64 96
  %74 = load ptr, ptr %73, align 8, !tbaa !59
  %.not36 = icmp eq ptr %74, null
  br i1 %.not36, label %84, label %75

75:                                               ; preds = %68
  %76 = call i32 @SUNLinSolSpace(ptr noundef nonnull %70, ptr noundef nonnull %6, ptr noundef nonnull %7) #8
  %.not37 = icmp eq i32 %76, 0
  br i1 %.not37, label %77, label %84

77:                                               ; preds = %75
  %78 = load i64, ptr %7, align 8, !tbaa !49
  %79 = load i64, ptr %2, align 8, !tbaa !49
  %80 = add nsw i64 %79, %78
  store i64 %80, ptr %2, align 8, !tbaa !49
  %81 = load i64, ptr %6, align 8, !tbaa !49
  %82 = load i64, ptr %1, align 8, !tbaa !49
  %83 = add nsw i64 %82, %81
  store i64 %83, ptr %1, align 8, !tbaa !49
  br label %84

84:                                               ; preds = %68, %77, %75, %59, %43, %19, %14, %9
  %.0 = phi i32 [ -1, %9 ], [ -2, %14 ], [ -5, %19 ], [ -1, %43 ], [ -1, %59 ], [ -1, %75 ], [ 0, %77 ], [ 0, %68 ]
  call void @llvm.lifetime.end.p0(i64 8, ptr nonnull %7) #8
  call void @llvm.lifetime.end.p0(i64 8, ptr nonnull %6) #8
  call void @llvm.lifetime.end.p0(i64 8, ptr nonnull %5) #8
  call void @llvm.lifetime.end.p0(i64 8, ptr nonnull %4) #8
  ret i32 %.0
}